target datalayout = "e-m:e-p270:32:32-p271:32:32-p272:64:64-i64:64-i128:128-f80:128-n8:16:32:64-S128"
target triple = "x86_64-pc-linux-gnu"

@bench_key = internal thread_local global ptr null, align 8
@bench_iv = internal thread_local global ptr null, align 8
@aesAuthAddSz = internal global i32 13, align 4
@.str.13 = private unnamed_addr constant [23 x i8] c"AES-128-GCM-enc-no_AAD\00", align 1
@.str.14 = private unnamed_addr constant [16 x i8] c"AES-128-GCM-enc\00", align 1
@.str.15 = private unnamed_addr constant [23 x i8] c"AES-128-GCM-enc-custom\00", align 1
@.str.16 = private unnamed_addr constant [23 x i8] c"AES-128-GCM-dec-no_AAD\00", align 1
@.str.17 = private unnamed_addr constant [16 x i8] c"AES-128-GCM-dec\00", align 1
@.str.18 = private unnamed_addr constant [23 x i8] c"AES-128-GCM-dec-custom\00", align 1
@.str.19 = private unnamed_addr constant [23 x i8] c"AES-192-GCM-enc-no_AAD\00", align 1
@.str.20 = private unnamed_addr constant [16 x i8] c"AES-192-GCM-enc\00", align 1
@.str.21 = private unnamed_addr constant [23 x i8] c"AES-192-GCM-enc-custom\00", align 1
@.str.22 = private unnamed_addr constant [23 x i8] c"AES-192-GCM-dec-no_AAD\00", align 1
@.str.23 = private unnamed_addr constant [16 x i8] c"AES-192-GCM-dec\00", align 1
@.str.24 = private unnamed_addr constant [23 x i8] c"AES-192-GCM-dec-custom\00", align 1
@.str.25 = private unnamed_addr constant [23 x i8] c"AES-256-GCM-enc-no_AAD\00", align 1
@.str.26 = private unnamed_addr constant [16 x i8] c"AES-256-GCM-enc\00", align 1
@.str.27 = private unnamed_addr constant [23 x i8] c"AES-256-GCM-enc-custom\00", align 1
@.str.28 = private unnamed_addr constant [23 x i8] c"AES-256-GCM-dec-no_AAD\00", align 1
@.str.29 = private unnamed_addr constant [16 x i8] c"AES-256-GCM-dec\00", align 1
@.str.30 = private unnamed_addr constant [23 x i8] c"AES-256-GCM-dec-custom\00", align 1

; Function Attrs: nounwind uwtable
define dso_local void @bench_aesgcm(i32 noundef %0) #0 {
  %2 = alloca i32, align 4
  store i32 %0, ptr %2, align 4, !tbaa !4
  %3 = load i32, ptr %2, align 4, !tbaa !4
  %4 = call align 8 ptr @llvm.threadlocal.address.p0(ptr align 8 @bench_key)
  %5 = load ptr, ptr %4, align 8, !tbaa !12
  %6 = call align 8 ptr @llvm.threadlocal.address.p0(ptr align 8 @bench_iv)
  %7 = load ptr, ptr %6, align 8, !tbaa !12
  %8 = load i32, ptr @aesAuthAddSz, align 4, !tbaa !4
  %9 = icmp eq i32 %8, 0
  br i1 %9, label %10, label %11

10:                                               ; preds = %1
  br label %15

11:                                               ; preds = %1
  %12 = load i32, ptr @aesAuthAddSz, align 4, !tbaa !4
  %13 = icmp eq i32 %12, 13
  %14 = select i1 %13, ptr @.str.14, ptr @.str.15
  br label %15

15:                                               ; preds = %11, %10
  %16 = phi ptr [ @.str.13, %10 ], [ %14, %11 ]
  %17 = load i32, ptr @aesAuthAddSz, align 4, !tbaa !4
  %18 = icmp eq i32 %17, 0
  br i1 %18, label %19, label %20

19:                                               ; preds = %15
  br label %24

20:                                               ; preds = %15
  %21 = load i32, ptr @aesAuthAddSz, align 4, !tbaa !4
  %22 = icmp eq i32 %21, 13
  %23 = select i1 %22, ptr @.str.17, ptr @.str.18
  br label %24

24:                                               ; preds = %20, %19
  %25 = phi ptr [ @.str.16, %19 ], [ %23, %20 ]
  call void @bench_aesgcm_internal(i32 noundef %3, ptr noundef %5, i32 noundef 16, ptr noundef %7, i32 noundef 12, ptr noundef %16, ptr noundef %25)
  %26 = load i32, ptr %2, align 4, !tbaa !4
  %27 = call align 8 ptr @llvm.threadlocal.address.p0(ptr align 8 @bench_key)
  %28 = load ptr, ptr %27, align 8, !tbaa !12
  %29 = call align 8 ptr @llvm.threadlocal.address.p0(ptr align 8 @bench_iv)
  %30 = load ptr, ptr %29, align 8, !tbaa !12
  %31 = load i32, ptr @aesAuthAddSz, align 4, !tbaa !4
  %32 = icmp eq i32 %31, 0
  br i1 %32, label %33, label %34

33:                                               ; preds = %24
  br label %38

34:                                               ; preds = %24
  %35 = load i32, ptr @aesAuthAddSz, align 4, !tbaa !4
  %36 = icmp eq i32 %35, 13
  %37 = select i1 %36, ptr @.str.20, ptr @.str.21
  br label %38

38:                                               ; preds = %34, %33
  %39 = phi ptr [ @.str.19, %33 ], [ %37, %34 ]
  %40 = load i32, ptr @aesAuthAddSz, align 4, !tbaa !4
  %41 = icmp eq i32 %40, 0
  br i1 %41, label %42, label %43

42:                                               ; preds = %38
  br label %47

43:                                               ; preds = %38
  %44 = load i32, ptr @aesAuthAddSz, align 4, !tbaa !4
  %45 = icmp eq i32 %44, 13
  %46 = select i1 %45, ptr @.str.23, ptr @.str.24
  br label %47

47:                                               ; preds = %43, %42
  %48 = phi ptr [ @.str.22, %42 ], [ %46, %43 ]
  call void @bench_aesgcm_internal(i32 noundef %26, ptr noundef %28, i32 noundef 24, ptr noundef %30, i32 noundef 12, ptr noundef %39, ptr noundef %48)
  %49 = load i32, ptr %2, align 4, !tbaa !4
  %50 = call align 8 ptr @llvm.threadlocal.address.p0(ptr align 8 @bench_key)
  %51 = load ptr, ptr %50, align 8, !tbaa !12
  %52 = call align 8 ptr @llvm.threadlocal.address.p0(ptr align 8 @bench_iv)
  %53 = load ptr, ptr %52, align 8, !tbaa !12
  %54 = load i32, ptr @aesAuthAddSz, align 4, !tbaa !4
  %55 = icmp eq i32 %54, 0
  br i1 %55, label %56, label %57

56:                                               ; preds = %47
  br label %61

57:                                               ; preds = %47
  %58 = load i32, ptr @aesAuthAddSz, align 4, !tbaa !4
  %59 = icmp eq i32 %58, 13
  %60 = select i1 %59, ptr @.str.26, ptr @.str.27
  br label %61

61:                                               ; preds = %57, %56
  %62 = phi ptr [ @.str.25, %56 ], [ %60, %57 ]
  %63 = load i32, ptr @aesAuthAddSz, align 4, !tbaa !4
  %64 = icmp eq i32 %63, 0
  br i1 %64, label %65, label %66

65:                                               ; preds = %61
  br label %70

66:                                               ; preds = %61
  %67 = load i32, ptr @aesAuthAddSz, align 4, !tbaa !4
  %68 = icmp eq i32 %67, 13
  %69 = select i1 %68, ptr @.str.29, ptr @.str.30
  br label %70

70:                                               ; preds = %66, %65
  %71 = phi ptr [ @.str.28, %65 ], [ %69, %66 ]
  call void @bench_aesgcm_internal(i32 noundef %49, ptr noundef %51, i32 noundef 32, ptr noundef %53, i32 noundef 12, ptr noundef %62, ptr noundef %71)
  ret void
}