; Function Attrs: nounwind uwtable
define dso_local void @bench_aesgcm(i32 noundef %0) local_unnamed_addr #0 {
  %2 = tail call align 8 ptr @llvm.threadlocal.address.p0(ptr align 8 @bench_key)
  %3 = load ptr, ptr %2, align 8, !tbaa !8
  %4 = tail call align 8 ptr @llvm.threadlocal.address.p0(ptr align 8 @bench_iv)
  %5 = load ptr, ptr %4, align 8, !tbaa !8
  %6 = load i32, ptr @aesAuthAddSz, align 4, !tbaa !4
  %7 = icmp eq i32 %6, 0
  %8 = icmp eq i32 %6, 13
  %9 = select i1 %8, ptr @.str.14, ptr @.str.15
  %10 = select i1 %7, ptr @.str.13, ptr %9
  %11 = select i1 %8, ptr @.str.17, ptr @.str.18
  %12 = select i1 %7, ptr @.str.16, ptr %11
  tail call fastcc void @bench_aesgcm_internal(ptr noundef %3, i32 noundef 16, ptr noundef %5, ptr noundef nonnull %10, ptr noundef nonnull %12)
  %13 = load ptr, ptr %2, align 8, !tbaa !8
  %14 = load ptr, ptr %4, align 8, !tbaa !8
  %15 = load i32, ptr @aesAuthAddSz, align 4, !tbaa !4
  %16 = icmp eq i32 %15, 0
  %17 = icmp eq i32 %15, 13
  %18 = select i1 %17, ptr @.str.20, ptr @.str.21
  %19 = select i1 %16, ptr @.str.19, ptr %18
  %20 = select i1 %17, ptr @.str.23, ptr @.str.24
  %21 = select i1 %16, ptr @.str.22, ptr %20
  tail call fastcc void @bench_aesgcm_internal(ptr noundef %13, i32 noundef 24, ptr noundef %14, ptr noundef nonnull %19, ptr noundef nonnull %21)
  %22 = load ptr, ptr %2, align 8, !tbaa !8
  %23 = load ptr, ptr %4, align 8, !tbaa !8
  %24 = load i32, ptr @aesAuthAddSz, align 4, !tbaa !4
  %25 = icmp eq i32 %24, 0
  %26 = icmp eq i32 %24, 13
  %27 = select i1 %26, ptr @.str.26, ptr @.str.27
  %28 = select i1 %25, ptr @.str.25, ptr %27
  %29 = select i1 %26, ptr @.str.29, ptr @.str.30
  %30 = select i1 %25, ptr @.str.28, ptr %29
  tail call fastcc void @bench_aesgcm_internal(ptr noundef %22, i32 noundef 32, ptr noundef %23, ptr noundef nonnull %28, ptr noundef nonnull %30)
  ret void
}